target datalayout = "e-m:e-p270:32:32-p271:32:32-p272:64:64-i64:64-i128:128-f80:128-n8:16:32:64-S128"
target triple = "x86_64-pc-linux-gnu"

%struct.zrange_result_handler = type { i32, ptr, ptr, ptr, ptr, i32, i32, ptr, ptr, ptr, ptr }

; Function Attrs: nounwind uwtable
define internal void @zrangeResultHandlerInit(ptr noundef %0, ptr noundef %1, i32 noundef %2) #0 {
  %4 = alloca ptr, align 8
  %5 = alloca ptr, align 8
  %6 = alloca i32, align 4
  store ptr %0, ptr %4, align 8, !tbaa !208
  store ptr %1, ptr %5, align 8, !tbaa !150
  store i32 %2, ptr %6, align 4, !tbaa !5
  %7 = load ptr, ptr %4, align 8, !tbaa !208
  call void @llvm.memset.p0.i64(ptr align 8 %7, i8 0, i64 80, i1 false)
  %8 = load ptr, ptr %5, align 8, !tbaa !150
  %9 = load ptr, ptr %4, align 8, !tbaa !208
  %10 = getelementptr inbounds nuw %struct.zrange_result_handler, ptr %9, i32 0, i32 1
  store ptr %8, ptr %10, align 8, !tbaa !210
  %11 = load i32, ptr %6, align 4, !tbaa !5
  switch i32 %11, label %30 [
    i32 0, label %12
    i32 1, label %21
  ]

12:                                               ; preds = %3
  %13 = load ptr, ptr %4, align 8, !tbaa !208
  %14 = getelementptr inbounds nuw %struct.zrange_result_handler, ptr %13, i32 0, i32 7
  store ptr @zrangeResultBeginClient, ptr %14, align 8, !tbaa !212
  %15 = load ptr, ptr %4, align 8, !tbaa !208
  %16 = getelementptr inbounds nuw %struct.zrange_result_handler, ptr %15, i32 0, i32 8
  store ptr @zrangeResultFinalizeClient, ptr %16, align 8, !tbaa !213
  %17 = load ptr, ptr %4, align 8, !tbaa !208
  %18 = getelementptr inbounds nuw %struct.zrange_result_handler, ptr %17, i32 0, i32 9
  store ptr @zrangeResultEmitCBufferToClient, ptr %18, align 8, !tbaa !215
  %19 = load ptr, ptr %4, align 8, !tbaa !208
  %20 = getelementptr inbounds nuw %struct.zrange_result_handler, ptr %19, i32 0, i32 10
  store ptr @zrangeResultEmitLongLongToClient, ptr %20, align 8, !tbaa !214
  br label %30

21:                                               ; preds = %3
  %22 = load ptr, ptr %4, align 8, !tbaa !208
  %23 = getelementptr inbounds nuw %struct.zrange_result_handler, ptr %22, i32 0, i32 7
  store ptr @zrangeResultBeginStore, ptr %23, align 8, !tbaa !212
  %24 = load ptr, ptr %4, align 8, !tbaa !208
  %25 = getelementptr inbounds nuw %struct.zrange_result_handler, ptr %24, i32 0, i32 8
  store ptr @zrangeResultFinalizeStore, ptr %25, align 8, !tbaa !213
  %26 = load ptr, ptr %4, align 8, !tbaa !208
  %27 = getelementptr inbounds nuw %struct.zrange_result_handler, ptr %26, i32 0, i32 9
  store ptr @zrangeResultEmitCBufferForStore, ptr %27, align 8, !tbaa !215
  %28 = load ptr, ptr %4, align 8, !tbaa !208
  %29 = getelementptr inbounds nuw %struct.zrange_result_handler, ptr %28, i32 0, i32 10
  store ptr @zrangeResultEmitLongLongForStore, ptr %29, align 8, !tbaa !214
  br label %30

30:                                               ; preds = %3, %21, %12
  ret void
}

; Function Attrs: nounwind uwtable
define dso_local void @zrangeCommand(ptr noundef %0) #0 {
  %2 = alloca ptr, align 8
  %3 = alloca %struct.zrange_result_handler, align 8
  store ptr %0, ptr %2, align 8, !tbaa !150
  call void @llvm.lifetime.start.p0(i64 80, ptr %3) #12
  %4 = load ptr, ptr %2, align 8, !tbaa !150
  call void @zrangeResultHandlerInit(ptr noundef %3, ptr noundef %4, i32 noundef 0)
  call void @zrangeGenericCommand(ptr noundef %3, i32 noundef 1, i32 noundef 0, i32 noundef 0, i32 noundef 0)
  call void @llvm.lifetime.end.p0(i64 80, ptr %3) #12
  ret void
}